; Function Attrs: nounwind uwtable
define internal ptr @number_power(ptr readnone captures(none) %0, ptr noundef %1) #0 {
  %3 = alloca ptr, align 8
  %4 = alloca ptr, align 8
  %5 = alloca ptr, align 8
  call void @llvm.lifetime.start.p0(i64 8, ptr nonnull %3) #3
  call void @llvm.lifetime.start.p0(i64 8, ptr nonnull %4) #3
  call void @llvm.lifetime.start.p0(i64 8, ptr nonnull %5) #3
  store ptr @_Py_NoneStruct, ptr %5, align 8, !tbaa !3
  %6 = call i32 (ptr, ptr, ...) @PyArg_ParseTuple(ptr noundef %1, ptr noundef nonnull @.str.39, ptr noundef nonnull %3, ptr noundef nonnull %4, ptr noundef nonnull %5) #3
  %.not = icmp eq i32 %6, 0
  br i1 %.not, label %20, label %7

7:                                                ; preds = %2
  %8 = load ptr, ptr %3, align 8, !tbaa !3
  %9 = icmp eq ptr %8, @_Py_NoneStruct
  br i1 %9, label %10, label %11

10:                                               ; preds = %7
  store ptr null, ptr %3, align 8, !tbaa !3
  br label %11

11:                                               ; preds = %7, %10
  %12 = phi ptr [ %8, %7 ], [ null, %10 ]
  %13 = load ptr, ptr %4, align 8, !tbaa !3
  %14 = icmp eq ptr %13, @_Py_NoneStruct
  br i1 %14, label %15, label %16

15:                                               ; preds = %11
  store ptr null, ptr %4, align 8, !tbaa !3
  br label %16

16:                                               ; preds = %15, %11
  %17 = phi ptr [ null, %15 ], [ %13, %11 ]
  %18 = load ptr, ptr %5, align 8, !tbaa !3
  %19 = call ptr @PyNumber_Power(ptr noundef %12, ptr noundef %17, ptr noundef %18) #3
  br label %20

20:                                               ; preds = %2, %16
  %.0 = phi ptr [ %19, %16 ], [ null, %2 ]
  call void @llvm.lifetime.end.p0(i64 8, ptr nonnull %5) #3
  call void @llvm.lifetime.end.p0(i64 8, ptr nonnull %4) #3
  call void @llvm.lifetime.end.p0(i64 8, ptr nonnull %3) #3
  ret ptr %.0
}